(dp0
S'pervert'
p1
S'2.79'
p2
sS'truck'
p3
S'5.47'
p4
sS'savior'
p5
S'7.73'
p6
sS'young'
p7
S'6.89'
p8
sS'allergy'
p9
S'3.07'
p10
sS'dollar'
p11
S'7.47'
p12
sS'foul'
p13
S'2.81'
p14
sS'month'
p15
S'5.15'
p16
sS'alien'
p17
S'5.6'
p18
sS'penis'
p19
S'5.9'
p20
sS'avalanche'
p21
S'3.29'
p22
sS'nursery'
p23
S'5.73'
p24
sS'sleep'
p25
S'7.2'
p26
sS'infatuation'
p27
S'6.73'
p28
sS'grateful'
p29
S'7.37'
p30
sS'messy'
p31
S'3.15'
p32
sS'gossip'
p33
S'3.48'
p34
sS'chair'
p35
S'5.08'
p36
sS'golfer'
p37
S'5.61'
p38
sS'hate'
p39
S'2.12'
p40
sS'milk'
p41
S'5.95'
p42
sS'devoted'
p43
S'7.41'
p44
sS'dreadful'
p45
S'2.26'
p46
sS'suicide'
p47
S'1.25'
p48
sS'smallpox'
p49
S'2.52'
p50
sS'gymnast'
p51
S'6.35'
p52
sS'tidy'
p53
S'6.3'
p54
sS'father'
p55
S'7.08'
p56
sS'rock'
p57
S'5.56'
p58
sS'passage'
p59
S'5.28'
p60
sS'robber'
p61
S'2.61'
p62
sS'trauma'
p63
S'2.1'
p64
sS'immature'
p65
S'3.39'
p66
sS'pride'
p67
S'7'
p68
sS'friendly'
p69
S'8.43'
p70
sS'annoy'
p71
S'2.74'
p72
sS'rejected'
p73
S'1.5'
p74
sS'garden'
p75
S'6.71'
p76
sS'advantage'
p77
S'6.95'
p78
sS'song'
p79
S'7.1'
p80
sS'blase'
p81
S'4.89'
p82
sS'carefree'
p83
S'7.54'
p84
sS'fat'
p85
S'2.28'
p86
sS'medicine'
p87
S'5.67'
p88
sS'street'
p89
S'5.22'
p90
sS'fatigued'
p91
S'3.28'
p92
sS'masturbate'
p93
S'5.45'
p94
sS'fall'
p95
S'4.09'
p96
sS'abduction'
p97
S'2.76'
p98
sS'tank'
p99
S'5.16'
p100
sS'trouble'
p101
S'3.03'
p102
sS'narcotic'
p103
S'4.29'
p104
sS'feeble'
p105
S'3.26'
p106
sS'elated'
p107
S'7.45'
p108
sS'disturb'
p109
S'3.66'
p110
sS'heaven'
p111
S'7.3'
p112
sS'clouds'
p113
S'6.18'
p114
sS'nectar'
p115
S'6.9'
p116
sS'stiff'
p117
S'4.68'
p118
sS'gender'
p119
S'5.73'
p120
sS'loneliness'
p121
S'1.61'
p122
sS'brother'
p123
S'7.11'
p124
sS'leader'
p125
S'7.63'
p126
sS'anxious'
p127
S'4.81'
p128
sS'item'
p129
S'5.26'
p130
sS'excellence'
p131
S'8.38'
p132
sS'highway'
p133
S'5.92'
p134
sS'quick'
p135
S'6.64'
p136
sS'traitor'
p137
S'2.22'
p138
sS'obesity'
p139
S'2.73'
p140
sS'razor'
p141
S'4.81'
p142
sS'triumph'
p143
S'7.8'
p144
sS'hinder'
p145
S'3.81'
p146
sS'brave'
p147
S'7.15'
p148
sS'invader'
p149
S'3.05'
p150
sS'blasphemy'
p151
S'3.75'
p152
sS'malice'
p153
S'2.69'
p154
sS'elegant'
p155
S'7.43'
p156
sS'erotic'
p157
S'7.43'
p158
sS'prairie'
p159
S'5.75'
p160
sS'earth'
p161
S'7.15'
p162
sS'guillotine'
p163
S'2.48'
p164
sS'patient'
p165
S'5.29'
p166
sS'helpless'
p167
S'2.2'
p168
sS'bake'
p169
S'6.17'
p170
sS'odd'
p171
S'4.82'
p172
sS'fear'
p173
S'2.76'
p174
sS'depression'
p175
S'1.85'
p176
sS'obey'
p177
S'4.52'
p178
sS'blue'
p179
S'6.76'
p180
sS'rainbow'
p181
S'8.14'
p182
sS'hide'
p183
S'4.32'
p184
sS'zest'
p185
S'6.79'
p186
sS'clock'
p187
S'5.14'
p188
sS'solemn'
p189
S'4.32'
p190
sS'scorching'
p191
S'3.76'
p192
sS'carcass'
p193
S'3.34'
p194
sS'orchestra'
p195
S'6.02'
p196
sS'revolver'
p197
S'4.02'
p198
sS'liberty'
p199
S'7.98'
p200
sS'cell'
p201
S'3.82'
p202
sS'rotten'
p203
S'2.26'
p204
sS'punishment'
p205
S'2.22'
p206
sS'rollercoaster'
p207
S'8.02'
p208
sS'utensil'
p209
S'5.14'
p210
sS'nurse'
p211
S'6.08'
p212
sS'bird'
p213
S'7.27'
p214
sS'exercise'
p215
S'7.13'
p216
sS'body'
p217
S'5.55'
p218
sS'seasick'
p219
S'2.05'
p220
sS'cozy'
p221
S'7.39'
p222
sS'malaria'
p223
S'2.4'
p224
sS'festive'
p225
S'7.3'
p226
sS'pancakes'
p227
S'6.08'
p228
sS'funeral'
p229
S'1.39'
p230
sS'dustpan'
p231
S'3.98'
p232
sS'blackmail'
p233
S'2.95'
p234
sS'water'
p235
S'6.61'
p236
sS'scum'
p237
S'2.43'
p238
sS'detest'
p239
S'2.17'
p240
sS'poverty'
p241
S'1.67'
p242
sS'free'
p243
S'8.26'
p244
sS'trunk'
p245
S'5.09'
p246
sS'deceit'
p247
S'2.9'
p248
sS'sexy'
p249
S'8.02'
p250
sS'strong'
p251
S'7.11'
p252
sS'shriek'
p253
S'3.93'
p254
sS'legend'
p255
S'6.39'
p256
sS'mobility'
p257
S'6.83'
p258
sS'boy'
p259
S'6.32'
p260
sS'kids'
p261
S'6.91'
p262
sS'talent'
p263
S'7.56'
p264
sS'pressure'
p265
S'3.38'
p266
sS'distressed'
p267
S'1.94'
p268
sS'inspired'
p269
S'7.15'
p270
sS'casino'
p271
S'6.81'
p272
sS'guilty'
p273
S'2.63'
p274
sS'jail'
p275
S'1.95'
p276
sS'brutal'
p277
S'2.8'
p278
sS'grenade'
p279
S'3.6'
p280
sS'misery'
p281
S'1.93'
p282
sS'opinion'
p283
S'6.28'
p284
sS'quarrel'
p285
S'2.93'
p286
sS'honor'
p287
S'7.66'
p288
sS'treasure'
p289
S'8.27'
p290
sS'insolent'
p291
S'4.35'
p292
sS'secure'
p293
S'7.57'
p294
sS'family'
p295
S'7.65'
p296
sS'danger'
p297
S'2.95'
p298
sS'madman'
p299
S'3.91'
p300
sS'terrified'
p301
S'1.72'
p302
sS'stink'
p303
S'3'
p304
sS'bloody'
p305
S'2.9'
p306
sS'moral'
p307
S'6.2'
p308
sS'unhappy'
p309
S'1.57'
p310
sS'reserved'
p311
S'4.88'
p312
sS'sugar'
p313
S'6.74'
p314
sS'crisis'
p315
S'2.74'
p316
sS'market'
p317
S'5.66'
p318
sS'red'
p319
S'6.41'
p320
sS'mutilate'
p321
S'1.82'
p322
sS'lottery'
p323
S'6.57'
p324
sS'army'
p325
S'4.72'
p326
sS'angry'
p327
S'2.85'
p328
sS'rape'
p329
S'1.25'
p330
sS'flabby'
p331
S'2.66'
p332
sS'insult'
p333
S'2.29'
p334
sS'music'
p335
S'8.13'
p336
sS'fragrance'
p337
S'6.07'
p338
sS'memory'
p339
S'6.62'
p340
sS'bliss'
p341
S'6.95'
p342
sS'injury'
p343
S'2.49'
p344
sS'wicked'
p345
S'2.96'
p346
sS'pencil'
p347
S'5.22'
p348
sS'thrill'
p349
S'8.05'
p350
sS'diamond'
p351
S'7.92'
p352
sS'door'
p353
S'5.13'
p354
sS'consoled'
p355
S'5.78'
p356
sS'riot'
p357
S'2.96'
p358
sS'demon'
p359
S'2.11'
p360
sS'kerosene'
p361
S'4.8'
p362
sS'infection'
p363
S'1.66'
p364
sS'chocolate'
p365
S'6.88'
p366
sS'grief'
p367
S'1.69'
p368
sS'excuse'
p369
S'4.05'
p370
sS'flag'
p371
S'6.02'
p372
sS'drown'
p373
S'1.92'
p374
sS'controlling'
p375
S'3.8'
p376
sS'adult'
p377
S'6.49'
p378
sS'rabbit'
p379
S'6.57'
p380
sS'baby'
p381
S'8.22'
p382
sS'unfaithful'
p383
S'2.05'
p384
sS'abundance'
p385
S'6.59'
p386
sS'honey'
p387
S'6.73'
p388
sS'meek'
p389
S'3.87'
p390
sS'sphere'
p391
S'5.33'
p392
sS'deformed'
p393
S'2.41'
p394
sS'car'
p395
S'7.73'
p396
sS'abortion'
p397
S'3.5'
p398
sS'cat'
p399
S'5.72'
p400
sS'locker'
p401
S'5.19'
p402
sS'cuddle'
p403
S'7.72'
p404
sS'icebox'
p405
S'4.95'
p406
sS'learn'
p407
S'7.15'
p408
sS'elbow'
p409
S'5.12'
p410
sS'detached'
p411
S'3.86'
p412
sS'laughter'
p413
S'8.45'
p414
sS'coffin'
p415
S'2.56'
p416
sS'history'
p417
S'5.24'
p418
sS'beautiful'
p419
S'7.6'
p420
sS'admired'
p421
S'7.74'
p422
sS'shark'
p423
S'3.65'
p424
sS'hamburger'
p425
S'6.27'
p426
sS'pollute'
p427
S'1.85'
p428
sS'table'
p429
S'5.22'
p430
sS'confused'
p431
S'3.21'
p432
sS'terrible'
p433
S'1.93'
p434
sS'autumn'
p435
S'6.3'
p436
sS'death'
p437
S'1.61'
p438
sS'chin'
p439
S'5.29'
p440
sS'indifferent'
p441
S'4.61'
p442
sS'dress'
p443
S'6.41'
p444
sS'contempt'
p445
S'3.85'
p446
sS'rescue'
p447
S'7.7'
p448
sS'lamb'
p449
S'5.89'
p450
sS'dazzle'
p451
S'7.29'
p452
sS'scar'
p453
S'3.38'
p454
sS'bankrupt'
p455
S'2'
p456
sS'tune'
p457
S'6.93'
p458
sS'nonchalant'
p459
S'4.74'
p460
sS'clothing'
p461
S'6.54'
p462
sS'travel'
p463
S'7.1'
p464
sS'comfort'
p465
S'7.07'
p466
sS'damage'
p467
S'3.05'
p468
sS'neurotic'
p469
S'4.45'
p470
sS'machine'
p471
S'5.09'
p472
sS'lamp'
p473
S'5.41'
p474
sS'crutch'
p475
S'3.43'
p476
sS'morbid'
p477
S'2.87'
p478
sS'answer'
p479
S'6.63'
p480
sS'disappoint'
p481
S'2.39'
p482
sS'comedy'
p483
S'8.37'
p484
sS'beach'
p485
S'8.03'
p486
sS'horror'
p487
S'2.76'
p488
sS'dignified'
p489
S'7.1'
p490
sS'pizza'
p491
S'6.65'
p492
sS'plant'
p493
S'5.98'
p494
sS'fever'
p495
S'2.76'
p496
sS'beauty'
p497
S'7.82'
p498
sS'farm'
p499
S'5.53'
p500
sS'insecure'
p501
S'2.36'
p502
sS'sour'
p503
S'3.93'
p504
sS'lump'
p505
S'4.16'
p506
sS'disgusted'
p507
S'2.45'
p508
sS'fungus'
p509
S'3.06'
p510
sS'discomfort'
p511
S'2.19'
p512
sS'birthday'
p513
S'7.84'
p514
sS'adventure'
p515
S'7.6'
p516
sS'hawk'
p517
S'5.88'
p518
sS'dove'
p519
S'6.9'
p520
sS'lesbian'
p521
S'4.67'
p522
sS'man'
p523
S'6.73'
p524
sS'scurvy'
p525
S'3.19'
p526
sS'natural'
p527
S'6.59'
p528
sS'deserter'
p529
S'2.45'
p530
sS'whistle'
p531
S'5.81'
p532
sS'revolt'
p533
S'4.13'
p534
sS'greet'
p535
g68
sS'stagnant'
p536
S'4.15'
p537
sS'wink'
p538
S'6.93'
p539
sS'green'
p540
S'6.18'
p541
sS'agony'
p542
S'2.43'
p543
sS'basket'
p544
S'5.45'
p545
sS'pleasure'
p546
S'8.28'
p547
sS'inhabitant'
p548
S'5.05'
p549
sS'egg'
p550
S'5.29'
p551
sS'greed'
p552
S'3.51'
p553
sS'leisurely'
p554
S'6.88'
p555
sS'cute'
p556
S'7.62'
p557
sS'infant'
p558
S'6.95'
p559
sS'office'
p560
S'5.24'
p561
sS'scalding'
p562
S'2.82'
p563
sS'muffin'
p564
S'6.57'
p565
sS'kitten'
p566
S'6.86'
p567
sS'urine'
p568
S'3.25'
p569
sS'satisfied'
p570
S'7.94'
p571
sS'poetry'
p572
S'5.86'
p573
sS'cook'
p574
S'6.16'
p575
sS'repentant'
p576
S'5.53'
p577
sS'paper'
p578
S'5.2'
p579
sS'hell'
p580
S'2.24'
p581
sS'cold'
p582
S'4.02'
p583
sS'avenue'
p584
S'5.5'
p585
sS'arrogant'
p586
S'3.69'
p587
sS'treat'
p588
S'7.36'
p589
sS'inferior'
p590
S'3.07'
p591
sS'window'
p592
S'5.91'
p593
sS'suffocate'
p594
S'1.56'
p595
sS'mail'
p596
S'6.88'
p597
sS'derelict'
p598
S'4.28'
p599
sS'criminal'
p600
S'2.93'
p601
sS'vehicle'
p602
S'6.27'
p603
sS'good'
p604
S'7.47'
p605
sS'crash'
p606
S'2.31'
p607
sS'food'
p608
S'7.65'
p609
sS'killer'
p610
S'1.89'
p611
sS'toxic'
p612
S'2.1'
p613
sS'vomit'
p614
S'2.06'
p615
sS'frigid'
p616
S'3.5'
p617
sS'kiss'
p618
S'8.26'
p619
sS'ambition'
p620
S'7.04'
p621
sS'foot'
p622
S'5.02'
p623
sS'hairdryer'
p624
S'4.84'
p625
sS'prick'
p626
S'3.98'
p627
sS'ketchup'
p628
S'5.6'
p629
sS'respectful'
p630
S'7.22'
p631
sS'gloom'
p632
S'1.88'
p633
sS'name'
p634
S'5.55'
p635
sS'clumsy'
p636
S'4'
p637
sS'immoral'
p638
S'3.5'
p639
sS'radiant'
p640
S'6.73'
p641
sS'sweetheart'
p642
S'8.42'
p643
sS'weary'
p644
S'3.79'
p645
sS'sin'
p646
S'2.8'
p647
sS'bless'
p648
S'7.19'
p649
sS'victory'
p650
S'8.32'
p651
sS'truth'
p652
S'7.8'
p653
sS'pinch'
p654
S'3.83'
p655
sS'addicted'
p656
S'2.51'
p657
sS'volcano'
p658
S'4.84'
p659
sS'athletics'
p660
S'6.61'
p661
sS'lantern'
p662
S'5.57'
p663
sS'burial'
p664
S'2.05'
p665
sS'activate'
p666
S'5.46'
p667
sS'garment'
p668
S'6.07'
p669
sS'fish'
p670
S'6.04'
p671
sS'hard'
p672
S'5.22'
p673
sS'idea'
p674
g68
sS'gun'
p675
S'3.47'
p676
sS'burdened'
p677
S'2.5'
p678
sS'aloof'
p679
S'4.9'
p680
sS'slave'
p681
S'1.84'
p682
sS'dawn'
p683
S'6.16'
p684
sS'perfume'
p685
S'6.76'
p686
sS'obsession'
p687
S'4.52'
p688
sS'event'
p689
S'6.21'
p690
sS'sunrise'
p691
S'7.86'
p692
sS'embattled'
p693
S'4.39'
p694
sS'putrid'
p695
S'2.38'
p696
sS'flower'
p697
S'6.64'
p698
sS'rude'
p699
S'2.5'
p700
sS'intercourse'
p701
S'7.36'
p702
sS'space'
p703
S'6.78'
p704
sS'profit'
p705
S'7.63'
p706
sS'god'
p707
S'8.15'
p708
sS'sickness'
p709
S'2.25'
p710
sS'chaos'
p711
S'4.17'
p712
sS'jolly'
p713
S'7.41'
p714
sS'upset'
p715
g456
sS'melody'
p716
S'7.07'
p717
sS'stupid'
p718
S'2.31'
p719
sS'health'
p720
S'6.81'
p721
sS'paradise'
p722
S'8.72'
p723
sS'cyclone'
p724
S'3.6'
p725
sS'blubber'
p726
S'3.52'
p727
sS'hooker'
p728
S'3.34'
p729
sS'slush'
p730
S'4.66'
p731
sS'despairing'
p732
S'2.43'
p733
sS'busybody'
p734
S'5.17'
p735
sS'spouse'
p736
S'7.58'
p737
sS'umbrella'
p738
S'5.16'
p739
sS'theory'
p740
S'5.3'
p741
sS'dirt'
p742
S'4.17'
p743
sS'scorn'
p744
S'2.84'
p745
sS'cockroach'
p746
S'2.81'
p747
sS'quart'
p748
S'5.39'
p749
sS'heroin'
p750
S'4.36'
p751
sS'intruder'
p752
S'2.77'
p753
sS'success'
p754
S'8.29'
p755
sS'imagine'
p756
S'7.32'
p757
sS'hand'
p758
S'5.95'
p759
sS'pus'
p760
S'2.86'
p761
sS'blister'
p762
S'2.88'
p763
sS'beast'
p764
S'4.23'
p765
sS'hostile'
p766
S'2.73'
p767
sS'maniac'
p768
S'3.76'
p769
sS'louse'
p770
S'2.81'
p771
sS'honest'
p772
S'7.7'
p773
sS'abuse'
p774
S'1.8'
p775
sS'promotion'
p776
S'8.2'
p777
sS'neglect'
p778
S'2.63'
p779
sS'mad'
p780
S'2.44'
p781
sS'blind'
p782
S'3.05'
p783
sS'enraged'
p784
S'2.46'
p785
sS'tennis'
p786
S'6.02'
p787
sS'tomb'
p788
S'2.94'
p789
sS'bouquet'
p790
S'7.02'
p791
sS'wasp'
p792
S'3.37'
p793
sS'powerful'
p794
S'6.84'
p795
sS'valentine'
p796
S'8.11'
p797
sS'embarrassed'
p798
S'3.03'
p799
sS'fantasy'
p800
S'7.41'
p801
sS'listless'
p802
S'4.12'
p803
sS'sunlight'
p804
S'7.76'
p805
sS'bland'
p806
S'4.1'
p807
sS'scissors'
p808
S'5.05'
p809
sS'custom'
p810
S'5.85'
p811
sS'quality'
p812
S'6.25'
p813
sS'city'
p814
S'6.03'
p815
sS'horse'
p816
S'5.89'
p817
sS'toy'
p818
g68
sS'hydrant'
p819
S'5.02'
p820
sS'privacy'
p821
S'5.88'
p822
sS'blossom'
p823
S'7.26'
p824
sS'divorce'
p825
S'2.22'
p826
sS'grime'
p827
S'3.37'
p828
sS'elevator'
p829
S'5.44'
p830
sS'paint'
p831
S'5.62'
p832
sS'vagina'
p833
S'6.14'
p834
sS'shamed'
p835
S'2.5'
p836
sS'saint'
p837
S'6.49'
p838
sS'thoughtful'
p839
S'7.65'
p840
sS'ankle'
p841
S'5.27'
p842
sS'white'
p843
S'6.47'
p844
sS'friend'
p845
S'7.74'
p846
sS'headache'
p847
S'2.02'
p848
sS'curtains'
p849
S'4.83'
p850
sS'agility'
p851
S'6.46'
p852
sS'hug'
p853
S'8'
p854
sS'stomach'
p855
S'4.82'
p856
sS'option'
p857
S'6.49'
p858
sS'panic'
p859
S'3.12'
p860
sS'tool'
p861
S'5.19'
p862
sS'hotel'
p863
S'6'
p864
sS'dreary'
p865
S'3.05'
p866
sS'plane'
p867
S'6.43'
p868
sS'sentiment'
p869
S'5.98'
p870
sS'dentist'
p871
S'4.02'
p872
sS'part'
p873
S'5.11'
p874
sS'rifle'
p875
S'4.02'
p876
sS'rain'
p877
S'5.08'
p878
sS'sex'
p879
S'8.05'
p880
sS'miracle'
p881
S'8.6'
p882
sS'king'
p883
S'7.26'
p884
sS'kind'
p885
S'7.59'
p886
sS'FALSE'
p887
S'3.27'
p888
sS'orgasm'
p889
S'8.32'
p890
sS'depressed'
p891
S'1.83'
p892
sS'coward'
p893
S'2.74'
p894
sS'riches'
p895
S'7.7'
p896
sS'rusty'
p897
S'3.86'
p898
sS'bed'
p899
S'7.51'
p900
sS'youth'
p901
S'6.75'
p902
sS'bride'
p903
S'7.34'
p904
sS'protected'
p905
S'7.29'
p906
sS'silly'
p907
S'7.41'
p908
sS'iron'
p909
S'4.9'
p910
sS'outdoors'
p911
S'7.47'
p912
sS'weapon'
p913
S'3.97'
p914
sS'decompose'
p915
S'3.2'
p916
sS'crucify'
p917
S'2.23'
p918
sS'illness'
p919
S'2.48'
p920
sS'angel'
p921
S'7.53'
p922
sS'outstanding'
p923
S'7.75'
p924
sS'rattle'
p925
S'5.03'
p926
sS'reunion'
p927
S'6.48'
p928
sS'mind'
p929
S'6.68'
p930
sS'lice'
p931
S'2.31'
p932
sS'alley'
p933
S'4.48'
p934
sS'sad'
p935
S'1.61'
p936
sS'gentle'
p937
S'7.31'
p938
sS'rat'
p939
S'3.02'
p940
sS'caress'
p941
S'7.84'
p942
sS'manner'
p943
S'5.64'
p944
sS'blond'
p945
S'6.43'
p946
sS'anger'
p947
S'2.34'
p948
sS'vigorous'
p949
S'6.79'
p950
sS'mantel'
p951
S'4.93'
p952
sS'surgery'
p953
S'2.86'
p954
sS'contents'
p955
S'4.89'
p956
sS'salute'
p957
S'5.92'
p958
sS'lie'
p959
S'2.79'
p960
sS'bastard'
p961
S'3.36'
p962
sS'afraid'
p963
g456
sS'person'
p964
S'6.32'
p965
sS'hammer'
p966
S'4.88'
p967
sS'awed'
p968
S'6.7'
p969
sS'gripe'
p970
S'3.14'
p971
sS'severe'
p972
S'3.2'
p973
sS'impotent'
p974
S'2.81'
p975
sS'diver'
p976
S'6.45'
p977
sS'terrific'
p978
S'8.16'
p979
sS'luxury'
p980
S'7.88'
p981
sS'poster'
p982
S'5.34'
p983
sS'snob'
p984
S'3.36'
p985
sS'destroy'
p986
S'2.64'
p987
sS'writer'
p988
S'5.52'
p989
sS'relaxed'
p990
g68
sS'butterfly'
p991
S'7.17'
p992
sS'needle'
p993
S'3.82'
p994
sS'pain'
p995
S'2.13'
p996
sS'easygoing'
p997
S'7.2'
p998
sS'voyage'
p999
S'6.25'
p1000
sS'tornado'
p1001
S'2.55'
p1002
sS'ambulance'
p1003
S'2.47'
p1004
sS'offend'
p1005
S'2.76'
p1006
sS'assault'
p1007
S'2.03'
p1008
sS'charm'
p1009
S'6.77'
p1010
sS'addict'
p1011
S'2.48'
p1012
sS'letter'
p1013
S'6.61'
p1014
sS'phase'
p1015
S'5.17'
p1016
sS'nuisance'
p1017
S'3.27'
p1018
sS'coin'
p1019
S'6.02'
p1020
sS'achievement'
p1021
S'7.89'
p1022
sS'dummy'
p1023
S'3.38'
p1024
sS'lawn'
p1025
S'5.24'
p1026
sS'dream'
p1027
S'6.73'
p1028
sS'proud'
p1029
S'8.03'
p1030
sS'metal'
p1031
S'4.95'
p1032
sS'dog'
p1033
S'7.57'
p1034
sS'face'
p1035
S'6.39'
p1036
sS'swamp'
p1037
S'5.14'
p1038
sS'storm'
p1039
S'4.95'
p1040
sS'sunset'
p1041
S'7.68'
p1042
sS'absurd'
p1043
S'4.26'
p1044
sS'sun'
p1045
S'7.55'
p1046
sS'innocent'
p1047
S'6.51'
p1048
sS'barrel'
p1049
S'5.05'
p1050
sS'wine'
p1051
S'5.95'
p1052
sS'scream'
p1053
S'3.88'
p1054
sS'taxi'
p1055
S'5'
p1056
sS'despise'
p1057
S'2.03'
p1058
sS'bomb'
p1059
S'2.1'
p1060
sS'inspire'
p1061
S'6.97'
p1062
sS'gold'
p1063
S'7.54'
p1064
sS'stool'
p1065
S'4.56'
p1066
sS'stove'
p1067
S'4.98'
p1068
sS'queen'
p1069
S'6.44'
p1070
sS'spanking'
p1071
S'3.55'
p1072
sS'hairpin'
p1073
S'5.26'
p1074
sS'vampire'
p1075
S'4.26'
p1076
sS'astonished'
p1077
S'6.56'
p1078
sS'bright'
p1079
S'7.5'
p1080
sS'radio'
p1081
S'6.73'
p1082
sS'poison'
p1083
S'1.98'
p1084
sS'ulcer'
p1085
S'1.78'
p1086
sS'corner'
p1087
S'4.36'
p1088
sS'aggressive'
p1089
S'5.1'
p1090
sS'overwhelmed'
p1091
S'4.19'
p1092
sS'slow'
p1093
S'3.93'
p1094
sS'knowledge'
p1095
S'7.58'
p1096
sS'justice'
p1097
S'7.78'
p1098
sS'nervous'
p1099
S'3.29'
p1100
sS'scorpion'
p1101
S'3.69'
p1102
sS'hopeful'
p1103
S'7.1'
p1104
sS'refreshment'
p1105
S'7.44'
p1106
sS'crime'
p1107
S'2.89'
p1108
sS'penalty'
p1109
S'2.83'
p1110
sS'black'
p1111
S'5.39'
p1112
sS'betray'
p1113
S'1.68'
p1114
sS'pretty'
p1115
S'7.75'
p1116
sS'germs'
p1117
S'2.86'
p1118
sS'outrage'
p1119
S'3.52'
p1120
sS'circle'
p1121
S'5.67'
p1122
sS'humiliate'
p1123
S'2.24'
p1124
sS'hope'
p1125
S'7.05'
p1126
sS'skyscraper'
p1127
S'5.88'
p1128
sS'hit'
p1129
S'4.33'
p1130
sS'loved'
p1131
S'8.64'
p1132
sS'hostage'
p1133
S'2.2'
p1134
sS'cannon'
p1135
S'4.9'
p1136
sS'massacre'
p1137
S'2.28'
p1138
sS'watch'
p1139
S'5.78'
p1140
sS'lucky'
p1141
S'8.17'
p1142
sS'coast'
p1143
S'5.98'
p1144
sS'famous'
p1145
S'6.98'
p1146
sS'breast'
p1147
S'6.5'
p1148
sS'wedding'
p1149
S'7.82'
p1150
sS'nasty'
p1151
S'3.58'
p1152
sS'silk'
p1153
S'6.9'
p1154
sS'banner'
p1155
S'5.4'
p1156
sS'bar'
p1157
S'6.42'
p1158
sS'skull'
p1159
S'4.27'
p1160
sS'tobacco'
p1161
S'3.28'
p1162
sS'shy'
p1163
S'4.64'
p1164
sS'skijump'
p1165
S'7.06'
p1166
sS'method'
p1167
S'5.56'
p1168
sS'naked'
p1169
S'6.34'
p1170
sS'yacht'
p1171
S'6.95'
p1172
sS'priest'
p1173
S'6.42'
p1174
sS'river'
p1175
S'6.85'
p1176
sS'vision'
p1177
S'6.62'
p1178
sS'insane'
p1179
S'2.85'
p1180
sS'untroubled'
p1181
S'7.62'
p1182
sS'tender'
p1183
S'6.93'
p1184
sS'art'
p1185
S'6.68'
p1186
sS'disaster'
p1187
S'1.73'
p1188
sS'dump'
p1189
S'3.21'
p1190
sS'habit'
p1191
S'4.11'
p1192
sS'smooth'
p1193
S'6.58'
p1194
sS'seat'
p1195
S'4.95'
p1196
sS'nun'
p1197
S'4.93'
p1198
sS'lion'
p1199
S'5.57'
p1200
sS'computer'
p1201
S'6.24'
p1202
sS'optimism'
p1203
S'6.95'
p1204
sS'corrupt'
p1205
S'3.32'
p1206
sS'humane'
p1207
S'6.89'
p1208
sS'runner'
p1209
S'5.67'
p1210
sS'aroused'
p1211
S'7.97'
p1212
sS'arm'
p1213
S'5.34'
p1214
sS'excitement'
p1215
S'7.5'
p1216
sS'limber'
p1217
S'5.68'
p1218
sS'movie'
p1219
S'6.86'
p1220
sS'nightmare'
p1221
S'1.91'
p1222
sS'favor'
p1223
S'6.46'
p1224
sS'finger'
p1225
S'5.29'
p1226
sS'crude'
p1227
S'3.12'
p1228
sS'progress'
p1229
S'7.73'
p1230
sS'win'
p1231
S'8.38'
p1232
sS'pistol'
p1233
S'4.2'
p1234
sS'frustrated'
p1235
S'2.48'
p1236
sS'decorate'
p1237
S'6.93'
p1238
sS'lazy'
p1239
S'4.38'
p1240
sS'mildew'
p1241
S'3.17'
p1242
sS'hardship'
p1243
S'2.45'
p1244
sS'useful'
p1245
S'7.14'
p1246
sS'nature'
p1247
S'7.65'
p1248
sS'joy'
p1249
S'8.6'
p1250
sS'masterful'
p1251
S'7.09'
p1252
sS'ignorance'
p1253
S'3.07'
p1254
sS'regretful'
p1255
S'2.28'
p1256
sS'stress'
p1257
S'2.09'
p1258
sS'spray'
p1259
S'5.45'
p1260
sS'disdainful'
p1261
S'3.68'
p1262
sS'key'
p1263
S'5.68'
p1264
sS'news'
p1265
S'5.3'
p1266
sS'debt'
p1267
S'2.22'
p1268
sS'lawsuit'
p1269
S'3.37'
p1270
sS'perfection'
p1271
S'7.25'
p1272
sS'improve'
p1273
S'7.65'
p1274
sS'pity'
p1275
S'3.37'
p1276
sS'accident'
p1277
S'2.05'
p1278
sS'cow'
p1279
S'5.57'
p1280
sS'restaurant'
p1281
S'6.76'
p1282
sS'fault'
p1283
S'3.43'
p1284
sS'jelly'
p1285
S'5.66'
p1286
sS'millionaire'
p1287
S'8.03'
p1288
sS'concentrate'
p1289
S'5.2'
p1290
sS'lively'
p1291
S'7.2'
p1292
sS'context'
p1293
S'5.2'
p1294
sS'torture'
p1295
S'1.56'
p1296
sS'rancid'
p1297
S'4.34'
p1298
sS'snuggle'
p1299
S'7.92'
p1300
sS'merry'
p1301
S'7.9'
p1302
sS'cancer'
p1303
S'1.5'
p1304
sS'color'
p1305
S'7.02'
p1306
sS'sky'
p1307
S'7.37'
p1308
sS'alone'
p1309
S'2.41'
p1310
sS'dancer'
p1311
S'7.14'
p1312
sS'church'
p1313
S'6.28'
p1314
sS'respect'
p1315
S'7.64'
p1316
sS'trumpet'
p1317
S'5.75'
p1318
sS'trust'
p1319
S'6.68'
p1320
sS'sailboat'
p1321
S'7.25'
p1322
sS'bathroom'
p1323
S'5.55'
p1324
sS'devil'
p1325
S'2.21'
p1326
sS'filth'
p1327
S'2.47'
p1328
sS'beggar'
p1329
S'3.22'
p1330
sS'capable'
p1331
S'7.16'
p1332
sS'swift'
p1333
S'6.46'
p1334
sS'muddy'
p1335
S'4.44'
p1336
sS'acceptance'
p1337
S'7.98'
p1338
sS'vacation'
p1339
S'8.16'
p1340
sS'teacher'
p1341
S'5.68'
p1342
sS'confident'
p1343
S'7.98'
p1344
sS'termite'
p1345
S'3.58'
p1346
sS'bees'
p1347
S'3.2'
p1348
sS'coarse'
p1349
S'4.55'
p1350
sS'interest'
p1351
S'6.97'
p1352
sS'sinful'
p1353
S'2.93'
p1354
sS'waste'
p1355
S'2.93'
p1356
sS'scholar'
p1357
S'7.26'
p1358
sS'warmth'
p1359
S'7.41'
p1360
sS'idol'
p1361
S'6.12'
p1362
sS'engine'
p1363
S'5.2'
p1364
sS'life'
p1365
S'7.27'
p1366
sS'suspicious'
p1367
S'3.76'
p1368
sS'champion'
p1369
S'8.44'
p1370
sS'mushroom'
p1371
S'5.78'
p1372
sS'fire'
p1373
S'3.22'
p1374
sS'measles'
p1375
S'2.74'
p1376
sS'bereavement'
p1377
S'4.57'
p1378
sS'wounds'
p1379
S'2.51'
p1380
sS'tense'
p1381
S'3.56'
p1382
sS'slap'
p1383
S'2.95'
p1384
sS'child'
p1385
S'7.08'
p1386
sS'vanity'
p1387
S'4.3'
p1388
sS'pig'
p1389
S'5.07'
p1390
sS'spirit'
p1391
g68
sS'present'
p1392
S'6.95'
p1393
sS'kerchief'
p1394
S'5.11'
p1395
sS'holiday'
p1396
S'7.55'
p1397
sS'fur'
p1398
S'4.51'
p1399
sS'social'
p1400
S'6.88'
p1401
sS'fearful'
p1402
S'2.25'
p1403
sS'plain'
p1404
S'4.39'
p1405
sS'pungent'
p1406
S'3.95'
p1407
sS'cash'
p1408
S'8.37'
p1409
sS'air'
p1410
S'6.34'
p1411
sS'ugly'
p1412
S'2.43'
p1413
sS'tragedy'
p1414
S'1.78'
p1415
sS'leprosy'
p1416
S'2.09'
p1417
sS'joke'
p1418
S'8.1'
p1419
sS'fun'
p1420
S'8.37'
p1421
sS'bathtub'
p1422
S'6.69'
p1423
sS'mangle'
p1424
S'3.9'
p1425
sS'spider'
p1426
S'3.33'
p1427
sS'mistake'
p1428
S'2.86'
p1429
sS'penthouse'
p1430
S'6.81'
p1431
sS'swimmer'
p1432
S'6.54'
p1433
sS'kindness'
p1434
S'7.82'
p1435
sS'cane'
p1436
g637
sS'alcoholic'
p1437
S'2.84'
p1438
sS'mucus'
p1439
S'3.34'
p1440
sS'mystic'
p1441
g864
sS'ink'
p1442
S'5.05'
p1443
sS'engaged'
p1444
g854
sS'defeated'
p1445
S'2.34'
p1446
sS'quiet'
p1447
S'5.58'
p1448
sS'lust'
p1449
S'7.12'
p1450
sS'ecstasy'
p1451
S'7.98'
p1452
sS'unit'
p1453
S'5.59'
p1454
sS'lonely'
p1455
S'2.17'
p1456
sS'violin'
p1457
S'5.43'
p1458
sS'toothache'
p1459
S'1.98'
p1460
sS'obnoxious'
p1461
S'3.5'
p1462
sS'fame'
p1463
S'7.93'
p1464
sS'whore'
p1465
S'2.3'
p1466
sS'cuisine'
p1467
S'6.64'
p1468
sS'terrorist'
p1469
S'1.69'
p1470
sS'doctor'
p1471
S'5.2'
p1472
sS'patent'
p1473
S'5.29'
p1474
sS'yellow'
p1475
S'5.61'
p1476
sS'headlight'
p1477
S'5.24'
p1478
sS'bowl'
p1479
S'5.33'
p1480
sS'defiant'
p1481
S'4.26'
p1482
sS'python'
p1483
S'4.05'
p1484
sS'haphazard'
p1485
S'4.02'
p1486
sS'sheltered'
p1487
S'5.75'
p1488
sS'corridor'
p1489
S'4.88'
p1490
sS'venom'
p1491
S'2.68'
p1492
sS'party'
p1493
S'7.86'
p1494
sS'bunny'
p1495
S'7.24'
p1496
sS'palace'
p1497
S'7.19'
p1498
sS'windmill'
p1499
S'5.6'
p1500
sS'material'
p1501
S'5.26'
p1502
sS'displeased'
p1503
S'2.79'
p1504
sS'mountain'
p1505
S'6.59'
p1506
sS'enjoyment'
p1507
S'7.8'
p1508
sS'foam'
p1509
S'6.07'
p1510
sS'diploma'
p1511
g854
sS'evil'
p1512
S'3.23'
p1513
sS'alert'
p1514
S'6.2'
p1515
sS'delight'
p1516
S'8.26'
p1517
sS'moment'
p1518
S'5.76'
p1519
sS'waterfall'
p1520
S'7.88'
p1521
sS'statue'
p1522
S'5.17'
p1523
sS'discouraged'
p1524
g304
sS'timid'
p1525
S'3.86'
p1526
sS'identity'
p1527
S'6.57'
p1528
sS'destruction'
p1529
S'3.16'
p1530
sS'butter'
p1531
S'5.33'
p1532
sS'safe'
p1533
S'7.07'
p1534
sS'fascinate'
p1535
S'7.34'
p1536
sS'troubled'
p1537
S'2.17'
p1538
sS'pillow'
p1539
S'7.92'
p1540
sS'shotgun'
p1541
S'4.37'
p1542
sS'resent'
p1543
S'3.76'
p1544
sS'humble'
p1545
S'5.86'
p1546
sS'magical'
p1547
S'7.46'
p1548
sS'ocean'
p1549
S'7.12'
p1550
sS'thought'
p1551
S'6.39'
p1552
sS'idiot'
p1553
S'3.16'
p1554
sS'cheer'
p1555
S'8.1'
p1556
sS'breeze'
p1557
S'6.85'
p1558
sS'bottle'
p1559
S'6.15'
p1560
sS'mother'
p1561
S'8.39'
p1562
sS'reward'
p1563
S'7.53'
p1564
sS'snake'
p1565
S'3.31'
p1566
sS'lightbulb'
p1567
S'5.61'
p1568
sS'peace'
p1569
S'7.72'
p1570
sS'maggot'
p1571
S'2.06'
p1572
sS'money'
p1573
S'7.59'
p1574
sS'wealthy'
p1575
S'7.7'
p1576
sS'slime'
p1577
S'2.68'
p1578
sS'snow'
p1579
S'7.08'
p1580
sS'lavish'
p1581
S'6.21'
p1582
sS'violent'
p1583
S'2.29'
p1584
sS'incentive'
p1585
g68
sS'victim'
p1586
S'2.18'
p1587
sS'love'
p1588
S'8.72'
p1589
sS'shadow'
p1590
S'4.35'
p1591
sS'alimony'
p1592
S'3.95'
p1593
sS'cut'
p1594
S'3.64'
p1595
sS'field'
p1596
S'6.2'
p1597
sS'twilight'
p1598
S'7.23'
p1599
sS'lighthouse'
p1600
S'5.89'
p1601
sS'cemetery'
p1602
S'2.63'
p1603
sS'lake'
p1604
S'6.82'
p1605
sS'bench'
p1606
S'4.61'
p1607
sS'hay'
p1608
S'5.24'
p1609
sS'luscious'
p1610
S'7.5'
p1611
sS'board'
p1612
S'4.82'
p1613
sS'easy'
p1614
S'7.1'
p1615
sS'prison'
p1616
S'2.05'
p1617
sS'morgue'
p1618
S'1.92'
p1619
sS'save'
p1620
S'6.45'
p1621
sS'hat'
p1622
S'5.46'
p1623
sS'joyful'
p1624
S'8.22'
p1625
sS'kick'
p1626
S'4.31'
p1627
sS'useless'
p1628
S'2.13'
p1629
sS'starving'
p1630
S'2.39'
p1631
sS'radiator'
p1632
S'4.67'
p1633
sS'wagon'
p1634
S'5.37'
p1635
sS'couple'
p1636
S'7.41'
p1637
sS'thermometer'
p1638
S'4.73'
p1639
sS'vandal'
p1640
S'2.71'
p1641
sS'crushed'
p1642
S'2.21'
p1643
sS'dark'
p1644
S'4.71'
p1645
sS'game'
p1646
S'6.98'
p1647
sS'boxer'
p1648
S'5.51'
p1649
sS'bandage'
p1650
S'4.54'
p1651
sS'knot'
p1652
S'4.64'
p1653
sS'gangrene'
p1654
S'2.28'
p1655
sS'world'
p1656
S'6.5'
p1657
sS'roach'
p1658
S'2.35'
p1659
sS'execution'
p1660
S'2.37'
p1661
sS'grin'
p1662
S'7.4'
p1663
sS'moody'
p1664
S'3.2'
p1665
sS'desire'
p1666
S'7.69'
p1667
sS'skeptical'
p1668
S'4.52'
p1669
sS'trash'
p1670
S'2.67'
p1671
sS'lost'
p1672
S'2.82'
p1673
sS'gift'
p1674
S'7.77'
p1675
sS'pamphlet'
p1676
S'4.79'
p1677
sS'nude'
p1678
S'6.82'
p1679
sS'candy'
p1680
S'6.54'
p1681
sS'lightning'
p1682
S'4.57'
p1683
sS'heart'
p1684
S'7.39'
p1685
sS'sissy'
p1686
S'3.14'
p1687
sS'nipple'
p1688
S'6.27'
p1689
sS'mosquito'
p1690
S'2.8'
p1691
sS'tower'
p1692
S'5.46'
p1693
sS'soft'
p1694
S'7.12'
p1695
sS'overcast'
p1696
S'3.65'
p1697
sS'doll'
p1698
S'6.09'
p1699
sS'spring'
p1700
S'7.76'
p1701
sS'scared'
p1702
S'2.78'
p1703
sS'village'
p1704
S'5.92'
p1705
sS'crown'
p1706
S'6.58'
p1707
sS'thief'
p1708
S'2.13'
p1709
sS'alive'
p1710
S'7.25'
p1711
sS'daylight'
p1712
S'6.8'
p1713
sS'mighty'
p1714
S'6.54'
p1715
sS'loser'
p1716
S'2.25'
p1717
sS'ridicule'
p1718
S'3.13'
p1719
sS'curious'
p1720
S'6.08'
p1721
sS'employment'
p1722
S'6.47'
p1723
sS'intellect'
p1724
S'6.82'
p1725
sS'humor'
p1726
S'8.56'
p1727
sS'pet'
p1728
S'6.79'
p1729
sS'memories'
p1730
S'7.48'
p1731
sS'corpse'
p1732
S'2.18'
p1733
sS'kettle'
p1734
S'5.22'
p1735
sS'hurricane'
p1736
S'3.34'
p1737
sS'modest'
p1738
S'5.76'
p1739
sS'anguished'
p1740
S'2.12'
p1741
sS'passion'
p1742
S'8.03'
p1743
sS'mutation'
p1744
S'3.91'
p1745
sS'syphilis'
p1746
S'1.68'
p1747
sS'noose'
p1748
S'3.76'
p1749
sS'adorable'
p1750
S'7.81'
p1751
sS'christmas'
p1752
S'7.8'
p1753
sS'knife'
p1754
S'3.62'
p1755
sS'cord'
p1756
S'5.1'
p1757
sS'vest'
p1758
S'5.25'
p1759
sS'murderer'
p1760
S'1.53'
p1761
sS'bold'
p1762
S'6.8'
p1763
sS'power'
p1764
S'6.54'
p1765
sS'intimate'
p1766
S'7.61'
p1767
sS'tree'
p1768
S'6.32'
p1769
sS'journal'
p1770
S'5.14'
p1771
sS'burn'
p1772
S'2.73'
p1773
sS'agreement'
p1774
S'7.08'
p1775
sS'slaughter'
p1776
S'1.64'
p1777
sS'cork'
p1778
S'5.22'
p1779
sS'broken'
p1780
S'3.05'
p1781
sS'slum'
p1782
S'2.39'
p1783
sS'pasta'
p1784
S'6.69'
p1785
sS'ache'
p1786
S'2.46'
p1787
sS'noisy'
p1788
S'5.02'
p1789
sS'trophy'
p1790
S'7.78'
p1791
sS'subdued'
p1792
S'4.67'
p1793
sS'ace'
p1794
S'6.88'
p1795
sS'tease'
p1796
S'4.84'
p1797
sS'column'
p1798
S'5.17'
p1799
sS'freedom'
p1800
S'7.58'
p1801
sS'industry'
p1802
S'5.3'
p1803
sS'paralysis'
p1804
S'1.98'
p1805
sS'insect'
p1806
S'4.07'
p1807
sS'tumor'
p1808
S'2.36'
p1809
sS'dinner'
p1810
S'7.16'
p1811
sS'irritate'
p1812
S'3.11'
p1813
sS'scornful'
p1814
S'3.02'
p1815
sS'hatred'
p1816
S'1.98'
p1817
sS'assassin'
p1818
S'3.09'
p1819
sS'hospital'
p1820
S'5.04'
p1821
sS'owl'
p1822
S'5.8'
p1823
sS'reptile'
p1824
S'4.77'
p1825
sS'dagger'
p1826
S'3.38'
p1827
sS'garbage'
p1828
S'2.98'
p1829
sS'nonsense'
p1830
S'4.61'
p1831
sS'obscene'
p1832
S'4.23'
p1833
sS'bath'
p1834
S'7.33'
p1835
sS'thankful'
p1836
S'6.89'
p1837
sS'square'
p1838
S'4.74'
p1839
sS'champ'
p1840
S'7.18'
p1841
sS'frog'
p1842
S'5.71'
p1843
sS'stench'
p1844
S'2.19'
p1845
sS'impressed'
p1846
S'7.33'
p1847
sS'soothe'
p1848
S'7.3'
p1849
sS'prestige'
p1850
S'7.26'
p1851
sS'fabric'
p1852
S'5.3'
p1853
sS'museum'
p1854
S'5.54'
p1855
sS'people'
p1856
S'7.33'
p1857
sS'jealousy'
p1858
S'2.51'
p1859
sS'errand'
p1860
S'4.58'
p1861
sS'fight'
p1862
S'3.76'
p1863
sS'surprised'
p1864
S'7.47'
p1865
sS'virgin'
p1866
S'6.45'
p1867
sS'startled'
p1868
S'4.5'
p1869
sS'house'
p1870
S'7.26'
p1871
sS'politeness'
p1872
S'7.18'
p1873
sS'bored'
p1874
S'2.95'
p1875
sS'war'
p1876
S'2.08'
p1877
sS'happy'
p1878
S'8.21'
p1879
sS'fork'
p1880
S'5.29'
p1881
sS'nourish'
p1882
S'6.46'
p1883
sS'mischief'
p1884
S'5.57'
p1885
sS'jug'
p1886
S'5.24'
p1887
sS'bus'
p1888
S'4.51'
p1889
sS'heal'
p1890
S'7.09'
p1891
sS'fireworks'
p1892
S'7.55'
p1893
sS'delayed'
p1894
S'3.07'
p1895
sS'cabinet'
p1896
S'5.05'
p1897
sS'glamour'
p1898
S'6.76'
p1899
sS'failure'
p1900
S'1.7'
p1901
sS'dead'
p1902
S'1.94'
p1903
sS'cottage'
p1904
S'6.45'
p1905
sS'eat'
p1906
S'7.47'
p1907
sS'handsome'
p1908
S'7.93'
p1909
sS'selfish'
p1910
S'2.42'
p1911
sS'patriot'
p1912
S'6.71'
p1913
sS'fraud'
p1914
S'2.67'
p1915
sS'wise'
p1916
S'7.52'
p1917
sS'romantic'
p1918
S'8.32'
p1919
sS'glory'
p1920
S'7.55'
p1921
sS'rage'
p1922
S'2.41'
p1923
sS'wife'
p1924
S'6.33'
p1925
sS'appliance'
p1926
S'5.1'
p1927
sS'triumphant'
p1928
S'8.82'
p1929
sS'flirt'
p1930
S'7.52'
p1931
sS'cruel'
p1932
S'1.97'
p1933
sS'pest'
p1934
S'3.13'
p1935
sS'dirty'
p1936
S'3.08'
p1937
sS'sapphire'
p1938
g68
sS'cake'
p1939
S'7.26'
p1940
sS'ennui'
p1941
S'5.09'
p1942
sS'grass'
p1943
S'6.12'
p1944
sS'affection'
p1945
S'8.39'
p1946
sS'taste'
p1947
S'6.66'
p1948
sS'garter'
p1949
S'6.22'
p1950
sS'circus'
p1951
S'7.3'
p1952
sS'pie'
p1953
S'6.41'
p1954
sS'muscular'
p1955
S'6.82'
p1956
sS'hungry'
p1957
S'3.58'
p1958
sS'manure'
p1959
S'3.1'
p1960
sS'home'
p1961
S'7.91'
p1962
sS'ship'
p1963
S'5.55'
p1964
sS'education'
p1965
S'6.69'
p1966
sS'mold'
p1967
S'3.55'
p1968
sS'girl'
p1969
S'6.87'
p1970
sS'loyal'
p1971
S'7.55'
p1972
sS'rough'
p1973
S'4.74'
p1974
sS'glacier'
p1975
S'5.5'
p1976
sS'disloyal'
p1977
S'1.93'
p1978
sS'detail'
p1979
S'5.55'
p1980
sS'graduate'
p1981
S'8.19'
p1982
sS'flood'
p1983
S'3.19'
p1984
sS'book'
p1985
S'5.72'
p1986
sS'astronaut'
p1987
S'6.66'
p1988
sS'sick'
p1989
S'1.9'
p1990
sS'puppy'
p1991
S'7.56'
p1992
sS'scandal'
p1993
S'3.32'
p1994
sS'nice'
p1995
S'6.55'
p1996
sS'scapegoat'
p1997
S'3.67'
p1998
sS'cellar'
p1999
S'4.32'
p2000
sS'star'
p2001
S'7.27'
p2002
sS'salad'
p2003
S'5.74'
p2004
sS'rabies'
p2005
S'1.77'
p2006
sS'reverent'
p2007
S'5.35'
p2008
sS'handicap'
p2009
S'3.29'
p2010
sS'chance'
p2011
S'6.02'
p2012
sS'tamper'
p2013
S'4.1'
p2014
sS'serious'
p2015
S'5.08'
p2016
sS'hurt'
p2017
S'1.9'
p2018
sS'cliff'
p2019
S'4.67'
p2020
sS'building'
p2021
S'5.29'
p2022
sS'applause'
p2023
S'7.5'
p2024
sS'bullet'
p2025
S'3.29'
p2026
sS'glass'
p2027
S'4.75'
p2028
sS'invest'
p2029
S'5.93'
p2030
sS'thorn'
p2031
S'3.64'
p2032
sS'jewel'
p2033
g68
sS'impair'
p2034
S'3.18'
p2035
sS'beverage'
p2036
S'6.83'
p2037
sS'time'
p2038
S'5.31'
p2039
sS'rigid'
p2040
S'3.66'
p2041
sS'menace'
p2042
S'2.88'
p2043
sS'virtue'
p2044
S'6.22'
p2045
s.