(dp0
S'pervert'
p1
F2.79
sS'truck'
p2
F5.47
sS'savior'
p3
F7.73
sS'young'
p4
F6.89
sS'allergy'
p5
F3.07
sS'dollar'
p6
F7.47
sS'foul'
p7
F2.81
sS'month'
p8
F5.15
sS'alien'
p9
F5.6
sS'penis'
p10
F5.9
sS'avalanche'
p11
F3.29
sS'nursery'
p12
F5.73
sS'sleep'
p13
F7.2
sS'infatuation'
p14
F6.73
sS'grateful'
p15
F7.37
sS'messy'
p16
F3.15
sS'gossip'
p17
F3.48
sS'chair'
p18
F5.08
sS'golfer'
p19
F5.61
sS'hate'
p20
F2.12
sS'milk'
p21
F5.95
sS'devoted'
p22
F7.41
sS'dreadful'
p23
F2.26
sS'suicide'
p24
F1.25
sS'smallpox'
p25
F2.52
sS'gymnast'
p26
F6.35
sS'tidy'
p27
F6.3
sS'father'
p28
F7.08
sS'rock'
p29
F5.56
sS'passage'
p30
F5.28
sS'robber'
p31
F2.61
sS'trauma'
p32
F2.1
sS'immature'
p33
F3.39
sS'pride'
p34
F7.0
sS'friendly'
p35
F8.43
sS'annoy'
p36
F2.74
sS'rejected'
p37
F1.5
sS'garden'
p38
F6.71
sS'advantage'
p39
F6.95
sS'song'
p40
F7.1
sS'blase'
p41
F4.89
sS'carefree'
p42
F7.54
sS'fat'
p43
F2.28
sS'medicine'
p44
F5.67
sS'street'
p45
F5.22
sS'fatigued'
p46
F3.28
sS'masturbate'
p47
F5.45
sS'fall'
p48
F4.09
sS'abduction'
p49
F2.76
sS'tank'
p50
F5.16
sS'trouble'
p51
F3.03
sS'narcotic'
p52
F4.29
sS'feeble'
p53
F3.26
sS'elated'
p54
F7.45
sS'disturb'
p55
F3.66
sS'heaven'
p56
F7.3
sS'clouds'
p57
F6.18
sS'nectar'
p58
F6.9
sS'stiff'
p59
F4.68
sS'gender'
p60
F5.73
sS'loneliness'
p61
F1.61
sS'brother'
p62
F7.11
sS'leader'
p63
F7.63
sS'anxious'
p64
F4.81
sS'item'
p65
F5.26
sS'excellence'
p66
F8.38
sS'highway'
p67
F5.92
sS'quick'
p68
F6.64
sS'traitor'
p69
F2.22
sS'obesity'
p70
F2.73
sS'razor'
p71
F4.81
sS'triumph'
p72
F7.8
sS'hinder'
p73
F3.81
sS'brave'
p74
F7.15
sS'invader'
p75
F3.05
sS'blasphemy'
p76
F3.75
sS'malice'
p77
F2.69
sS'elegant'
p78
F7.43
sS'erotic'
p79
F7.43
sS'prairie'
p80
F5.75
sS'earth'
p81
F7.15
sS'guillotine'
p82
F2.48
sS'patient'
p83
F5.29
sS'helpless'
p84
F2.2
sS'bake'
p85
F6.17
sS'odd'
p86
F4.82
sS'fear'
p87
F2.76
sS'depression'
p88
F1.85
sS'obey'
p89
F4.52
sS'blue'
p90
F6.76
sS'rainbow'
p91
F8.14
sS'hide'
p92
F4.32
sS'zest'
p93
F6.79
sS'clock'
p94
F5.14
sS'solemn'
p95
F4.32
sS'scorching'
p96
F3.76
sS'carcass'
p97
F3.34
sS'orchestra'
p98
F6.02
sS'revolver'
p99
F4.02
sS'liberty'
p100
F7.98
sS'cell'
p101
F3.82
sS'rotten'
p102
F2.26
sS'punishment'
p103
F2.22
sS'rollercoaster'
p104
F8.02
sS'utensil'
p105
F5.14
sS'nurse'
p106
F6.08
sS'bird'
p107
F7.27
sS'exercise'
p108
F7.13
sS'body'
p109
F5.55
sS'seasick'
p110
F2.05
sS'cozy'
p111
F7.39
sS'malaria'
p112
F2.4
sS'festive'
p113
F7.3
sS'pancakes'
p114
F6.08
sS'funeral'
p115
F1.39
sS'dustpan'
p116
F3.98
sS'blackmail'
p117
F2.95
sS'water'
p118
F6.61
sS'scum'
p119
F2.43
sS'detest'
p120
F2.17
sS'poverty'
p121
F1.67
sS'free'
p122
F8.26
sS'trunk'
p123
F5.09
sS'deceit'
p124
F2.9
sS'sexy'
p125
F8.02
sS'strong'
p126
F7.11
sS'shriek'
p127
F3.93
sS'legend'
p128
F6.39
sS'mobility'
p129
F6.83
sS'boy'
p130
F6.32
sS'kids'
p131
F6.91
sS'talent'
p132
F7.56
sS'pressure'
p133
F3.38
sS'distressed'
p134
F1.94
sS'inspired'
p135
F7.15
sS'casino'
p136
F6.81
sS'guilty'
p137
F2.63
sS'jail'
p138
F1.95
sS'brutal'
p139
F2.8
sS'grenade'
p140
F3.6
sS'misery'
p141
F1.93
sS'opinion'
p142
F6.28
sS'quarrel'
p143
F2.93
sS'honor'
p144
F7.66
sS'treasure'
p145
F8.27
sS'insolent'
p146
F4.35
sS'secure'
p147
F7.57
sS'family'
p148
F7.65
sS'danger'
p149
F2.95
sS'madman'
p150
F3.91
sS'terrified'
p151
F1.72
sS'stink'
p152
F3.0
sS'bloody'
p153
F2.9
sS'moral'
p154
F6.2
sS'unhappy'
p155
F1.57
sS'reserved'
p156
F4.88
sS'sugar'
p157
F6.74
sS'crisis'
p158
F2.74
sS'market'
p159
F5.66
sS'red'
p160
F6.41
sS'mutilate'
p161
F1.82
sS'lottery'
p162
F6.57
sS'army'
p163
F4.72
sS'angry'
p164
F2.85
sS'rape'
p165
F1.25
sS'flabby'
p166
F2.66
sS'insult'
p167
F2.29
sS'music'
p168
F8.13
sS'fragrance'
p169
F6.07
sS'memory'
p170
F6.62
sS'bliss'
p171
F6.95
sS'injury'
p172
F2.49
sS'wicked'
p173
F2.96
sS'pencil'
p174
F5.22
sS'thrill'
p175
F8.05
sS'diamond'
p176
F7.92
sS'door'
p177
F5.13
sS'consoled'
p178
F5.78
sS'riot'
p179
F2.96
sS'demon'
p180
F2.11
sS'kerosene'
p181
F4.8
sS'infection'
p182
F1.66
sS'chocolate'
p183
F6.88
sS'grief'
p184
F1.69
sS'excuse'
p185
F4.05
sS'flag'
p186
F6.02
sS'drown'
p187
F1.92
sS'controlling'
p188
F3.8
sS'adult'
p189
F6.49
sS'rabbit'
p190
F6.57
sS'baby'
p191
F8.22
sS'unfaithful'
p192
F2.05
sS'abundance'
p193
F6.59
sS'honey'
p194
F6.73
sS'meek'
p195
F3.87
sS'sphere'
p196
F5.33
sS'deformed'
p197
F2.41
sS'car'
p198
F7.73
sS'abortion'
p199
F3.5
sS'cat'
p200
F5.72
sS'locker'
p201
F5.19
sS'cuddle'
p202
F7.72
sS'icebox'
p203
F4.95
sS'learn'
p204
F7.15
sS'elbow'
p205
F5.12
sS'detached'
p206
F3.86
sS'laughter'
p207
F8.45
sS'coffin'
p208
F2.56
sS'history'
p209
F5.24
sS'beautiful'
p210
F7.6
sS'admired'
p211
F7.74
sS'shark'
p212
F3.65
sS'hamburger'
p213
F6.27
sS'pollute'
p214
F1.85
sS'table'
p215
F5.22
sS'confused'
p216
F3.21
sS'terrible'
p217
F1.93
sS'autumn'
p218
F6.3
sS'death'
p219
F1.61
sS'chin'
p220
F5.29
sS'indifferent'
p221
F4.61
sS'dress'
p222
F6.41
sS'contempt'
p223
F3.85
sS'rescue'
p224
F7.7
sS'lamb'
p225
F5.89
sS'dazzle'
p226
F7.29
sS'scar'
p227
F3.38
sS'bankrupt'
p228
F2.0
sS'tune'
p229
F6.93
sS'nonchalant'
p230
F4.74
sS'clothing'
p231
F6.54
sS'travel'
p232
F7.1
sS'comfort'
p233
F7.07
sS'damage'
p234
F3.05
sS'neurotic'
p235
F4.45
sS'machine'
p236
F5.09
sS'lamp'
p237
F5.41
sS'crutch'
p238
F3.43
sS'morbid'
p239
F2.87
sS'answer'
p240
F6.63
sS'disappoint'
p241
F2.39
sS'comedy'
p242
F8.37
sS'beach'
p243
F8.03
sS'horror'
p244
F2.76
sS'dignified'
p245
F7.1
sS'pizza'
p246
F6.65
sS'plant'
p247
F5.98
sS'fever'
p248
F2.76
sS'beauty'
p249
F7.82
sS'farm'
p250
F5.53
sS'insecure'
p251
F2.36
sS'sour'
p252
F3.93
sS'lump'
p253
F4.16
sS'disgusted'
p254
F2.45
sS'fungus'
p255
F3.06
sS'discomfort'
p256
F2.19
sS'birthday'
p257
F7.84
sS'adventure'
p258
F7.6
sS'hawk'
p259
F5.88
sS'dove'
p260
F6.9
sS'lesbian'
p261
F4.67
sS'man'
p262
F6.73
sS'scurvy'
p263
F3.19
sS'natural'
p264
F6.59
sS'deserter'
p265
F2.45
sS'whistle'
p266
F5.81
sS'revolt'
p267
F4.13
sS'greet'
p268
F7.0
sS'stagnant'
p269
F4.15
sS'wink'
p270
F6.93
sS'green'
p271
F6.18
sS'agony'
p272
F2.43
sS'basket'
p273
F5.45
sS'pleasure'
p274
F8.28
sS'inhabitant'
p275
F5.05
sS'egg'
p276
F5.29
sS'greed'
p277
F3.51
sS'leisurely'
p278
F6.88
sS'cute'
p279
F7.62
sS'infant'
p280
F6.95
sS'office'
p281
F5.24
sS'scalding'
p282
F2.82
sS'muffin'
p283
F6.57
sS'kitten'
p284
F6.86
sS'urine'
p285
F3.25
sS'satisfied'
p286
F7.94
sS'poetry'
p287
F5.86
sS'cook'
p288
F6.16
sS'repentant'
p289
F5.53
sS'paper'
p290
F5.2
sS'hell'
p291
F2.24
sS'cold'
p292
F4.02
sS'avenue'
p293
F5.5
sS'arrogant'
p294
F3.69
sS'treat'
p295
F7.36
sS'inferior'
p296
F3.07
sS'window'
p297
F5.91
sS'suffocate'
p298
F1.56
sS'mail'
p299
F6.88
sS'derelict'
p300
F4.28
sS'criminal'
p301
F2.93
sS'vehicle'
p302
F6.27
sS'good'
p303
F7.47
sS'crash'
p304
F2.31
sS'food'
p305
F7.65
sS'killer'
p306
F1.89
sS'toxic'
p307
F2.1
sS'vomit'
p308
F2.06
sS'frigid'
p309
F3.5
sS'kiss'
p310
F8.26
sS'ambition'
p311
F7.04
sS'foot'
p312
F5.02
sS'hairdryer'
p313
F4.84
sS'prick'
p314
F3.98
sS'ketchup'
p315
F5.6
sS'respectful'
p316
F7.22
sS'gloom'
p317
F1.88
sS'name'
p318
F5.55
sS'clumsy'
p319
F4.0
sS'immoral'
p320
F3.5
sS'radiant'
p321
F6.73
sS'sweetheart'
p322
F8.42
sS'weary'
p323
F3.79
sS'sin'
p324
F2.8
sS'bless'
p325
F7.19
sS'victory'
p326
F8.32
sS'truth'
p327
F7.8
sS'pinch'
p328
F3.83
sS'addicted'
p329
F2.51
sS'volcano'
p330
F4.84
sS'athletics'
p331
F6.61
sS'lantern'
p332
F5.57
sS'burial'
p333
F2.05
sS'activate'
p334
F5.46
sS'garment'
p335
F6.07
sS'fish'
p336
F6.04
sS'hard'
p337
F5.22
sS'idea'
p338
F7.0
sS'gun'
p339
F3.47
sS'burdened'
p340
F2.5
sS'aloof'
p341
F4.9
sS'slave'
p342
F1.84
sS'dawn'
p343
F6.16
sS'perfume'
p344
F6.76
sS'obsession'
p345
F4.52
sS'event'
p346
F6.21
sS'sunrise'
p347
F7.86
sS'embattled'
p348
F4.39
sS'putrid'
p349
F2.38
sS'flower'
p350
F6.64
sS'rude'
p351
F2.5
sS'intercourse'
p352
F7.36
sS'space'
p353
F6.78
sS'profit'
p354
F7.63
sS'god'
p355
F8.15
sS'sickness'
p356
F2.25
sS'chaos'
p357
F4.17
sS'jolly'
p358
F7.41
sS'upset'
p359
F2.0
sS'melody'
p360
F7.07
sS'stupid'
p361
F2.31
sS'health'
p362
F6.81
sS'paradise'
p363
F8.72
sS'cyclone'
p364
F3.6
sS'blubber'
p365
F3.52
sS'hooker'
p366
F3.34
sS'slush'
p367
F4.66
sS'despairing'
p368
F2.43
sS'busybody'
p369
F5.17
sS'spouse'
p370
F7.58
sS'umbrella'
p371
F5.16
sS'theory'
p372
F5.3
sS'dirt'
p373
F4.17
sS'scorn'
p374
F2.84
sS'cockroach'
p375
F2.81
sS'quart'
p376
F5.39
sS'heroin'
p377
F4.36
sS'intruder'
p378
F2.77
sS'success'
p379
F8.29
sS'imagine'
p380
F7.32
sS'hand'
p381
F5.95
sS'pus'
p382
F2.86
sS'blister'
p383
F2.88
sS'beast'
p384
F4.23
sS'hostile'
p385
F2.73
sS'maniac'
p386
F3.76
sS'louse'
p387
F2.81
sS'honest'
p388
F7.7
sS'abuse'
p389
F1.8
sS'promotion'
p390
F8.2
sS'neglect'
p391
F2.63
sS'mad'
p392
F2.44
sS'blind'
p393
F3.05
sS'enraged'
p394
F2.46
sS'tennis'
p395
F6.02
sS'tomb'
p396
F2.94
sS'bouquet'
p397
F7.02
sS'wasp'
p398
F3.37
sS'powerful'
p399
F6.84
sS'valentine'
p400
F8.11
sS'embarrassed'
p401
F3.03
sS'fantasy'
p402
F7.41
sS'listless'
p403
F4.12
sS'sunlight'
p404
F7.76
sS'bland'
p405
F4.1
sS'scissors'
p406
F5.05
sS'custom'
p407
F5.85
sS'quality'
p408
F6.25
sS'city'
p409
F6.03
sS'horse'
p410
F5.89
sS'toy'
p411
F7.0
sS'hydrant'
p412
F5.02
sS'privacy'
p413
F5.88
sS'blossom'
p414
F7.26
sS'divorce'
p415
F2.22
sS'grime'
p416
F3.37
sS'elevator'
p417
F5.44
sS'paint'
p418
F5.62
sS'vagina'
p419
F6.14
sS'shamed'
p420
F2.5
sS'saint'
p421
F6.49
sS'thoughtful'
p422
F7.65
sS'ankle'
p423
F5.27
sS'white'
p424
F6.47
sS'friend'
p425
F7.74
sS'headache'
p426
F2.02
sS'curtains'
p427
F4.83
sS'agility'
p428
F6.46
sS'hug'
p429
F8.0
sS'stomach'
p430
F4.82
sS'option'
p431
F6.49
sS'panic'
p432
F3.12
sS'tool'
p433
F5.19
sS'hotel'
p434
F6.0
sS'dreary'
p435
F3.05
sS'plane'
p436
F6.43
sS'sentiment'
p437
F5.98
sS'dentist'
p438
F4.02
sS'part'
p439
F5.11
sS'rifle'
p440
F4.02
sS'rain'
p441
F5.08
sS'sex'
p442
F8.05
sS'miracle'
p443
F8.6
sS'king'
p444
F7.26
sS'kind'
p445
F7.59
sS'FALSE'
p446
F3.27
sS'orgasm'
p447
F8.32
sS'depressed'
p448
F1.83
sS'coward'
p449
F2.74
sS'riches'
p450
F7.7
sS'rusty'
p451
F3.86
sS'bed'
p452
F7.51
sS'youth'
p453
F6.75
sS'bride'
p454
F7.34
sS'protected'
p455
F7.29
sS'silly'
p456
F7.41
sS'iron'
p457
F4.9
sS'outdoors'
p458
F7.47
sS'weapon'
p459
F3.97
sS'decompose'
p460
F3.2
sS'crucify'
p461
F2.23
sS'illness'
p462
F2.48
sS'angel'
p463
F7.53
sS'outstanding'
p464
F7.75
sS'rattle'
p465
F5.03
sS'reunion'
p466
F6.48
sS'mind'
p467
F6.68
sS'lice'
p468
F2.31
sS'alley'
p469
F4.48
sS'sad'
p470
F1.61
sS'gentle'
p471
F7.31
sS'rat'
p472
F3.02
sS'caress'
p473
F7.84
sS'manner'
p474
F5.64
sS'blond'
p475
F6.43
sS'anger'
p476
F2.34
sS'vigorous'
p477
F6.79
sS'mantel'
p478
F4.93
sS'surgery'
p479
F2.86
sS'contents'
p480
F4.89
sS'salute'
p481
F5.92
sS'lie'
p482
F2.79
sS'bastard'
p483
F3.36
sS'afraid'
p484
F2.0
sS'person'
p485
F6.32
sS'hammer'
p486
F4.88
sS'awed'
p487
F6.7
sS'gripe'
p488
F3.14
sS'severe'
p489
F3.2
sS'impotent'
p490
F2.81
sS'diver'
p491
F6.45
sS'terrific'
p492
F8.16
sS'luxury'
p493
F7.88
sS'poster'
p494
F5.34
sS'snob'
p495
F3.36
sS'destroy'
p496
F2.64
sS'writer'
p497
F5.52
sS'relaxed'
p498
F7.0
sS'butterfly'
p499
F7.17
sS'needle'
p500
F3.82
sS'pain'
p501
F2.13
sS'easygoing'
p502
F7.2
sS'voyage'
p503
F6.25
sS'tornado'
p504
F2.55
sS'ambulance'
p505
F2.47
sS'offend'
p506
F2.76
sS'assault'
p507
F2.03
sS'charm'
p508
F6.77
sS'addict'
p509
F2.48
sS'letter'
p510
F6.61
sS'phase'
p511
F5.17
sS'nuisance'
p512
F3.27
sS'coin'
p513
F6.02
sS'achievement'
p514
F7.89
sS'dummy'
p515
F3.38
sS'lawn'
p516
F5.24
sS'dream'
p517
F6.73
sS'proud'
p518
F8.03
sS'metal'
p519
F4.95
sS'dog'
p520
F7.57
sS'face'
p521
F6.39
sS'swamp'
p522
F5.14
sS'storm'
p523
F4.95
sS'sunset'
p524
F7.68
sS'absurd'
p525
F4.26
sS'sun'
p526
F7.55
sS'innocent'
p527
F6.51
sS'barrel'
p528
F5.05
sS'wine'
p529
F5.95
sS'scream'
p530
F3.88
sS'taxi'
p531
F5.0
sS'despise'
p532
F2.03
sS'bomb'
p533
F2.1
sS'inspire'
p534
F6.97
sS'gold'
p535
F7.54
sS'stool'
p536
F4.56
sS'stove'
p537
F4.98
sS'queen'
p538
F6.44
sS'spanking'
p539
F3.55
sS'hairpin'
p540
F5.26
sS'vampire'
p541
F4.26
sS'astonished'
p542
F6.56
sS'bright'
p543
F7.5
sS'radio'
p544
F6.73
sS'poison'
p545
F1.98
sS'ulcer'
p546
F1.78
sS'corner'
p547
F4.36
sS'aggressive'
p548
F5.1
sS'overwhelmed'
p549
F4.19
sS'slow'
p550
F3.93
sS'knowledge'
p551
F7.58
sS'justice'
p552
F7.78
sS'nervous'
p553
F3.29
sS'scorpion'
p554
F3.69
sS'hopeful'
p555
F7.1
sS'refreshment'
p556
F7.44
sS'crime'
p557
F2.89
sS'penalty'
p558
F2.83
sS'black'
p559
F5.39
sS'betray'
p560
F1.68
sS'pretty'
p561
F7.75
sS'germs'
p562
F2.86
sS'outrage'
p563
F3.52
sS'circle'
p564
F5.67
sS'humiliate'
p565
F2.24
sS'hope'
p566
F7.05
sS'skyscraper'
p567
F5.88
sS'hit'
p568
F4.33
sS'loved'
p569
F8.64
sS'hostage'
p570
F2.2
sS'cannon'
p571
F4.9
sS'massacre'
p572
F2.28
sS'watch'
p573
F5.78
sS'lucky'
p574
F8.17
sS'coast'
p575
F5.98
sS'famous'
p576
F6.98
sS'breast'
p577
F6.5
sS'wedding'
p578
F7.82
sS'nasty'
p579
F3.58
sS'silk'
p580
F6.9
sS'banner'
p581
F5.4
sS'bar'
p582
F6.42
sS'skull'
p583
F4.27
sS'tobacco'
p584
F3.28
sS'shy'
p585
F4.64
sS'skijump'
p586
F7.06
sS'method'
p587
F5.56
sS'naked'
p588
F6.34
sS'yacht'
p589
F6.95
sS'priest'
p590
F6.42
sS'river'
p591
F6.85
sS'vision'
p592
F6.62
sS'insane'
p593
F2.85
sS'untroubled'
p594
F7.62
sS'tender'
p595
F6.93
sS'art'
p596
F6.68
sS'disaster'
p597
F1.73
sS'dump'
p598
F3.21
sS'habit'
p599
F4.11
sS'smooth'
p600
F6.58
sS'seat'
p601
F4.95
sS'nun'
p602
F4.93
sS'lion'
p603
F5.57
sS'computer'
p604
F6.24
sS'optimism'
p605
F6.95
sS'corrupt'
p606
F3.32
sS'humane'
p607
F6.89
sS'runner'
p608
F5.67
sS'aroused'
p609
F7.97
sS'arm'
p610
F5.34
sS'excitement'
p611
F7.5
sS'limber'
p612
F5.68
sS'movie'
p613
F6.86
sS'nightmare'
p614
F1.91
sS'favor'
p615
F6.46
sS'finger'
p616
F5.29
sS'crude'
p617
F3.12
sS'progress'
p618
F7.73
sS'win'
p619
F8.38
sS'pistol'
p620
F4.2
sS'frustrated'
p621
F2.48
sS'decorate'
p622
F6.93
sS'lazy'
p623
F4.38
sS'mildew'
p624
F3.17
sS'hardship'
p625
F2.45
sS'useful'
p626
F7.14
sS'nature'
p627
F7.65
sS'joy'
p628
F8.6
sS'masterful'
p629
F7.09
sS'ignorance'
p630
F3.07
sS'regretful'
p631
F2.28
sS'stress'
p632
F2.09
sS'spray'
p633
F5.45
sS'disdainful'
p634
F3.68
sS'key'
p635
F5.68
sS'news'
p636
F5.3
sS'debt'
p637
F2.22
sS'lawsuit'
p638
F3.37
sS'perfection'
p639
F7.25
sS'improve'
p640
F7.65
sS'pity'
p641
F3.37
sS'accident'
p642
F2.05
sS'cow'
p643
F5.57
sS'restaurant'
p644
F6.76
sS'fault'
p645
F3.43
sS'jelly'
p646
F5.66
sS'millionaire'
p647
F8.03
sS'concentrate'
p648
F5.2
sS'lively'
p649
F7.2
sS'context'
p650
F5.2
sS'torture'
p651
F1.56
sS'rancid'
p652
F4.34
sS'snuggle'
p653
F7.92
sS'merry'
p654
F7.9
sS'cancer'
p655
F1.5
sS'color'
p656
F7.02
sS'sky'
p657
F7.37
sS'alone'
p658
F2.41
sS'dancer'
p659
F7.14
sS'church'
p660
F6.28
sS'respect'
p661
F7.64
sS'trumpet'
p662
F5.75
sS'trust'
p663
F6.68
sS'sailboat'
p664
F7.25
sS'bathroom'
p665
F5.55
sS'devil'
p666
F2.21
sS'filth'
p667
F2.47
sS'beggar'
p668
F3.22
sS'capable'
p669
F7.16
sS'swift'
p670
F6.46
sS'muddy'
p671
F4.44
sS'acceptance'
p672
F7.98
sS'vacation'
p673
F8.16
sS'teacher'
p674
F5.68
sS'confident'
p675
F7.98
sS'termite'
p676
F3.58
sS'bees'
p677
F3.2
sS'coarse'
p678
F4.55
sS'interest'
p679
F6.97
sS'sinful'
p680
F2.93
sS'waste'
p681
F2.93
sS'scholar'
p682
F7.26
sS'warmth'
p683
F7.41
sS'idol'
p684
F6.12
sS'engine'
p685
F5.2
sS'life'
p686
F7.27
sS'suspicious'
p687
F3.76
sS'champion'
p688
F8.44
sS'mushroom'
p689
F5.78
sS'fire'
p690
F3.22
sS'measles'
p691
F2.74
sS'bereavement'
p692
F4.57
sS'wounds'
p693
F2.51
sS'tense'
p694
F3.56
sS'slap'
p695
F2.95
sS'child'
p696
F7.08
sS'vanity'
p697
F4.3
sS'pig'
p698
F5.07
sS'spirit'
p699
F7.0
sS'present'
p700
F6.95
sS'kerchief'
p701
F5.11
sS'holiday'
p702
F7.55
sS'fur'
p703
F4.51
sS'social'
p704
F6.88
sS'fearful'
p705
F2.25
sS'plain'
p706
F4.39
sS'pungent'
p707
F3.95
sS'cash'
p708
F8.37
sS'air'
p709
F6.34
sS'ugly'
p710
F2.43
sS'tragedy'
p711
F1.78
sS'leprosy'
p712
F2.09
sS'joke'
p713
F8.1
sS'fun'
p714
F8.37
sS'bathtub'
p715
F6.69
sS'mangle'
p716
F3.9
sS'spider'
p717
F3.33
sS'mistake'
p718
F2.86
sS'penthouse'
p719
F6.81
sS'swimmer'
p720
F6.54
sS'kindness'
p721
F7.82
sS'cane'
p722
F4.0
sS'alcoholic'
p723
F2.84
sS'mucus'
p724
F3.34
sS'mystic'
p725
F6.0
sS'ink'
p726
F5.05
sS'engaged'
p727
F8.0
sS'defeated'
p728
F2.34
sS'quiet'
p729
F5.58
sS'lust'
p730
F7.12
sS'ecstasy'
p731
F7.98
sS'unit'
p732
F5.59
sS'lonely'
p733
F2.17
sS'violin'
p734
F5.43
sS'toothache'
p735
F1.98
sS'obnoxious'
p736
F3.5
sS'fame'
p737
F7.93
sS'whore'
p738
F2.3
sS'cuisine'
p739
F6.64
sS'terrorist'
p740
F1.69
sS'doctor'
p741
F5.2
sS'patent'
p742
F5.29
sS'yellow'
p743
F5.61
sS'headlight'
p744
F5.24
sS'bowl'
p745
F5.33
sS'defiant'
p746
F4.26
sS'python'
p747
F4.05
sS'haphazard'
p748
F4.02
sS'sheltered'
p749
F5.75
sS'corridor'
p750
F4.88
sS'venom'
p751
F2.68
sS'party'
p752
F7.86
sS'bunny'
p753
F7.24
sS'palace'
p754
F7.19
sS'windmill'
p755
F5.6
sS'material'
p756
F5.26
sS'displeased'
p757
F2.79
sS'mountain'
p758
F6.59
sS'enjoyment'
p759
F7.8
sS'foam'
p760
F6.07
sS'diploma'
p761
F8.0
sS'evil'
p762
F3.23
sS'alert'
p763
F6.2
sS'delight'
p764
F8.26
sS'moment'
p765
F5.76
sS'waterfall'
p766
F7.88
sS'statue'
p767
F5.17
sS'discouraged'
p768
F3.0
sS'timid'
p769
F3.86
sS'identity'
p770
F6.57
sS'destruction'
p771
F3.16
sS'butter'
p772
F5.33
sS'safe'
p773
F7.07
sS'fascinate'
p774
F7.34
sS'troubled'
p775
F2.17
sS'pillow'
p776
F7.92
sS'shotgun'
p777
F4.37
sS'resent'
p778
F3.76
sS'humble'
p779
F5.86
sS'magical'
p780
F7.46
sS'ocean'
p781
F7.12
sS'thought'
p782
F6.39
sS'idiot'
p783
F3.16
sS'cheer'
p784
F8.1
sS'breeze'
p785
F6.85
sS'bottle'
p786
F6.15
sS'mother'
p787
F8.39
sS'reward'
p788
F7.53
sS'snake'
p789
F3.31
sS'lightbulb'
p790
F5.61
sS'peace'
p791
F7.72
sS'maggot'
p792
F2.06
sS'money'
p793
F7.59
sS'wealthy'
p794
F7.7
sS'slime'
p795
F2.68
sS'snow'
p796
F7.08
sS'lavish'
p797
F6.21
sS'violent'
p798
F2.29
sS'incentive'
p799
F7.0
sS'victim'
p800
F2.18
sS'love'
p801
F8.72
sS'shadow'
p802
F4.35
sS'alimony'
p803
F3.95
sS'cut'
p804
F3.64
sS'field'
p805
F6.2
sS'twilight'
p806
F7.23
sS'lighthouse'
p807
F5.89
sS'cemetery'
p808
F2.63
sS'lake'
p809
F6.82
sS'bench'
p810
F4.61
sS'hay'
p811
F5.24
sS'luscious'
p812
F7.5
sS'board'
p813
F4.82
sS'easy'
p814
F7.1
sS'prison'
p815
F2.05
sS'morgue'
p816
F1.92
sS'save'
p817
F6.45
sS'hat'
p818
F5.46
sS'joyful'
p819
F8.22
sS'kick'
p820
F4.31
sS'useless'
p821
F2.13
sS'starving'
p822
F2.39
sS'radiator'
p823
F4.67
sS'wagon'
p824
F5.37
sS'couple'
p825
F7.41
sS'thermometer'
p826
F4.73
sS'vandal'
p827
F2.71
sS'crushed'
p828
F2.21
sS'dark'
p829
F4.71
sS'game'
p830
F6.98
sS'boxer'
p831
F5.51
sS'bandage'
p832
F4.54
sS'knot'
p833
F4.64
sS'gangrene'
p834
F2.28
sS'world'
p835
F6.5
sS'roach'
p836
F2.35
sS'execution'
p837
F2.37
sS'grin'
p838
F7.4
sS'moody'
p839
F3.2
sS'desire'
p840
F7.69
sS'skeptical'
p841
F4.52
sS'trash'
p842
F2.67
sS'lost'
p843
F2.82
sS'gift'
p844
F7.77
sS'pamphlet'
p845
F4.79
sS'nude'
p846
F6.82
sS'candy'
p847
F6.54
sS'lightning'
p848
F4.57
sS'heart'
p849
F7.39
sS'sissy'
p850
F3.14
sS'nipple'
p851
F6.27
sS'mosquito'
p852
F2.8
sS'tower'
p853
F5.46
sS'soft'
p854
F7.12
sS'overcast'
p855
F3.65
sS'doll'
p856
F6.09
sS'spring'
p857
F7.76
sS'scared'
p858
F2.78
sS'village'
p859
F5.92
sS'crown'
p860
F6.58
sS'thief'
p861
F2.13
sS'alive'
p862
F7.25
sS'daylight'
p863
F6.8
sS'mighty'
p864
F6.54
sS'loser'
p865
F2.25
sS'ridicule'
p866
F3.13
sS'curious'
p867
F6.08
sS'employment'
p868
F6.47
sS'intellect'
p869
F6.82
sS'humor'
p870
F8.56
sS'pet'
p871
F6.79
sS'memories'
p872
F7.48
sS'corpse'
p873
F2.18
sS'kettle'
p874
F5.22
sS'hurricane'
p875
F3.34
sS'modest'
p876
F5.76
sS'anguished'
p877
F2.12
sS'passion'
p878
F8.03
sS'mutation'
p879
F3.91
sS'syphilis'
p880
F1.68
sS'noose'
p881
F3.76
sS'adorable'
p882
F7.81
sS'christmas'
p883
F7.8
sS'knife'
p884
F3.62
sS'cord'
p885
F5.1
sS'vest'
p886
F5.25
sS'murderer'
p887
F1.53
sS'bold'
p888
F6.8
sS'power'
p889
F6.54
sS'intimate'
p890
F7.61
sS'tree'
p891
F6.32
sS'journal'
p892
F5.14
sS'burn'
p893
F2.73
sS'agreement'
p894
F7.08
sS'slaughter'
p895
F1.64
sS'cork'
p896
F5.22
sS'broken'
p897
F3.05
sS'slum'
p898
F2.39
sS'pasta'
p899
F6.69
sS'ache'
p900
F2.46
sS'noisy'
p901
F5.02
sS'trophy'
p902
F7.78
sS'subdued'
p903
F4.67
sS'ace'
p904
F6.88
sS'tease'
p905
F4.84
sS'column'
p906
F5.17
sS'freedom'
p907
F7.58
sS'industry'
p908
F5.3
sS'paralysis'
p909
F1.98
sS'insect'
p910
F4.07
sS'tumor'
p911
F2.36
sS'dinner'
p912
F7.16
sS'irritate'
p913
F3.11
sS'scornful'
p914
F3.02
sS'hatred'
p915
F1.98
sS'assassin'
p916
F3.09
sS'hospital'
p917
F5.04
sS'owl'
p918
F5.8
sS'reptile'
p919
F4.77
sS'dagger'
p920
F3.38
sS'garbage'
p921
F2.98
sS'nonsense'
p922
F4.61
sS'obscene'
p923
F4.23
sS'bath'
p924
F7.33
sS'thankful'
p925
F6.89
sS'square'
p926
F4.74
sS'champ'
p927
F7.18
sS'frog'
p928
F5.71
sS'stench'
p929
F2.19
sS'impressed'
p930
F7.33
sS'soothe'
p931
F7.3
sS'prestige'
p932
F7.26
sS'fabric'
p933
F5.3
sS'museum'
p934
F5.54
sS'people'
p935
F7.33
sS'jealousy'
p936
F2.51
sS'errand'
p937
F4.58
sS'fight'
p938
F3.76
sS'surprised'
p939
F7.47
sS'virgin'
p940
F6.45
sS'startled'
p941
F4.5
sS'house'
p942
F7.26
sS'politeness'
p943
F7.18
sS'bored'
p944
F2.95
sS'war'
p945
F2.08
sS'happy'
p946
F8.21
sS'fork'
p947
F5.29
sS'nourish'
p948
F6.46
sS'mischief'
p949
F5.57
sS'jug'
p950
F5.24
sS'bus'
p951
F4.51
sS'heal'
p952
F7.09
sS'fireworks'
p953
F7.55
sS'delayed'
p954
F3.07
sS'cabinet'
p955
F5.05
sS'glamour'
p956
F6.76
sS'failure'
p957
F1.7
sS'dead'
p958
F1.94
sS'cottage'
p959
F6.45
sS'eat'
p960
F7.47
sS'handsome'
p961
F7.93
sS'selfish'
p962
F2.42
sS'patriot'
p963
F6.71
sS'fraud'
p964
F2.67
sS'wise'
p965
F7.52
sS'romantic'
p966
F8.32
sS'glory'
p967
F7.55
sS'rage'
p968
F2.41
sS'wife'
p969
F6.33
sS'appliance'
p970
F5.1
sS'triumphant'
p971
F8.82
sS'flirt'
p972
F7.52
sS'cruel'
p973
F1.97
sS'pest'
p974
F3.13
sS'dirty'
p975
F3.08
sS'sapphire'
p976
F7.0
sS'cake'
p977
F7.26
sS'ennui'
p978
F5.09
sS'grass'
p979
F6.12
sS'affection'
p980
F8.39
sS'taste'
p981
F6.66
sS'garter'
p982
F6.22
sS'circus'
p983
F7.3
sS'pie'
p984
F6.41
sS'muscular'
p985
F6.82
sS'hungry'
p986
F3.58
sS'manure'
p987
F3.1
sS'home'
p988
F7.91
sS'ship'
p989
F5.55
sS'education'
p990
F6.69
sS'mold'
p991
F3.55
sS'girl'
p992
F6.87
sS'loyal'
p993
F7.55
sS'rough'
p994
F4.74
sS'glacier'
p995
F5.5
sS'disloyal'
p996
F1.93
sS'detail'
p997
F5.55
sS'graduate'
p998
F8.19
sS'flood'
p999
F3.19
sS'book'
p1000
F5.72
sS'astronaut'
p1001
F6.66
sS'sick'
p1002
F1.9
sS'puppy'
p1003
F7.56
sS'scandal'
p1004
F3.32
sS'nice'
p1005
F6.55
sS'scapegoat'
p1006
F3.67
sS'cellar'
p1007
F4.32
sS'star'
p1008
F7.27
sS'salad'
p1009
F5.74
sS'rabies'
p1010
F1.77
sS'reverent'
p1011
F5.35
sS'handicap'
p1012
F3.29
sS'chance'
p1013
F6.02
sS'tamper'
p1014
F4.1
sS'serious'
p1015
F5.08
sS'hurt'
p1016
F1.9
sS'cliff'
p1017
F4.67
sS'building'
p1018
F5.29
sS'applause'
p1019
F7.5
sS'bullet'
p1020
F3.29
sS'glass'
p1021
F4.75
sS'invest'
p1022
F5.93
sS'thorn'
p1023
F3.64
sS'jewel'
p1024
F7.0
sS'impair'
p1025
F3.18
sS'beverage'
p1026
F6.83
sS'time'
p1027
F5.31
sS'rigid'
p1028
F3.66
sS'menace'
p1029
F2.88
sS'virtue'
p1030
F6.22
s.